; Function Attrs: mustprogress uwtable
define void @_ZN3nix22createUnixDomainSocketERKNSt7__cxx1112basic_stringIcSt11char_traitsIcESaIcEEEj(ptr dead_on_unwind noalias writable sret(%"class.nix::AutoCloseFD") align 4 %0, ptr noundef nonnull align 8 dereferenceable(32) %1, i32 noundef %2) local_unnamed_addr #2 personality ptr @__gxx_personality_v0 {
  tail call void @_ZN3nix22createUnixDomainSocketEv(ptr dead_on_unwind writable sret(%"class.nix::AutoCloseFD") align 4 %0)
  %4 = invoke noundef i32 @_ZNK3nix11AutoCloseFD3getEv(ptr noundef nonnull align 4 dereferenceable(4) %0)
          to label %5 unwind label %14

5:                                                ; preds = %3
  invoke void @_ZN3nix4bindEiRKNSt7__cxx1112basic_stringIcSt11char_traitsIcESaIcEEE(i32 noundef %4, ptr noundef nonnull align 8 dereferenceable(32) %1)
          to label %6 unwind label %14

6:                                                ; preds = %5
  %7 = load ptr, ptr %1, align 8
  %8 = tail call i32 @chmod(ptr noundef %7, i32 noundef %2) #22
  %9 = icmp eq i32 %8, -1
  br i1 %9, label %10, label %18

10:                                               ; preds = %6
  %11 = tail call ptr @__cxa_allocate_exception(i64 384) #22
  %12 = tail call ptr @__errno_location() #23
  %13 = load i32, ptr %12, align 4
  invoke void @_ZN3nix8SysErrorC2IJA30_cNSt7__cxx1112basic_stringIcSt11char_traitsIcESaIcEEEEEEiDpRKT_(ptr noundef nonnull align 8 dereferenceable(380) %11, i32 noundef %13, ptr noundef nonnull align 1 dereferenceable(30) @.str.3, ptr noundef nonnull align 8 dereferenceable(32) %1)
          to label %_ZN3nix8SysErrorC2IJA30_cNSt7__cxx1112basic_stringIcSt11char_traitsIcESaIcEEEEEEDpRKT_.exit9.invoke unwind label %16

14:                                               ; preds = %_ZN3nix8SysErrorC2IJA30_cNSt7__cxx1112basic_stringIcSt11char_traitsIcESaIcEEEEEEDpRKT_.exit9.invoke, %18, %5, %3
  %15 = landingpad { ptr, i32 }
          cleanup
  br label %31

16:                                               ; preds = %10
  %17 = landingpad { ptr, i32 }
          cleanup
  tail call void @__cxa_free_exception(ptr %11) #22
  br label %31

18:                                               ; preds = %6
  %19 = invoke noundef i32 @_ZNK3nix11AutoCloseFD3getEv(ptr noundef nonnull align 4 dereferenceable(4) %0)
          to label %20 unwind label %14

20:                                               ; preds = %18
  %21 = tail call i32 @listen(i32 noundef %19, i32 noundef 100) #22
  %22 = icmp eq i32 %21, -1
  br i1 %22, label %23, label %30

23:                                               ; preds = %20
  %24 = tail call ptr @__cxa_allocate_exception(i64 384) #22
  %25 = tail call ptr @__errno_location() #23
  %26 = load i32, ptr %25, align 4
  invoke void @_ZN3nix8SysErrorC2IJA30_cNSt7__cxx1112basic_stringIcSt11char_traitsIcESaIcEEEEEEiDpRKT_(ptr noundef nonnull align 8 dereferenceable(380) %24, i32 noundef %26, ptr noundef nonnull align 1 dereferenceable(30) @.str.4, ptr noundef nonnull align 8 dereferenceable(32) %1)
          to label %_ZN3nix8SysErrorC2IJA30_cNSt7__cxx1112basic_stringIcSt11char_traitsIcESaIcEEEEEEDpRKT_.exit9.invoke unwind label %28

_ZN3nix8SysErrorC2IJA30_cNSt7__cxx1112basic_stringIcSt11char_traitsIcESaIcEEEEEEDpRKT_.exit9.invoke: ; preds = %10, %23
  %27 = phi ptr [ %24, %23 ], [ %11, %10 ]
  invoke void @__cxa_throw(ptr nonnull %27, ptr nonnull @_ZTIN3nix8SysErrorE, ptr nonnull @_ZN3nix8SysErrorD2Ev) #24
          to label %_ZN3nix8SysErrorC2IJA30_cNSt7__cxx1112basic_stringIcSt11char_traitsIcESaIcEEEEEEDpRKT_.exit9.cont unwind label %14

_ZN3nix8SysErrorC2IJA30_cNSt7__cxx1112basic_stringIcSt11char_traitsIcESaIcEEEEEEDpRKT_.exit9.cont: ; preds = %_ZN3nix8SysErrorC2IJA30_cNSt7__cxx1112basic_stringIcSt11char_traitsIcESaIcEEEEEEDpRKT_.exit9.invoke
  unreachable

28:                                               ; preds = %23
  %29 = landingpad { ptr, i32 }
          cleanup
  tail call void @__cxa_free_exception(ptr %24) #22
  br label %31

30:                                               ; preds = %20
  ret void

31:                                               ; preds = %28, %16, %14
  %.pn = phi { ptr, i32 } [ %15, %14 ], [ %17, %16 ], [ %29, %28 ]
  tail call void @_ZN3nix11AutoCloseFDD1Ev(ptr noundef nonnull align 4 dereferenceable(4) %0) #22
  resume { ptr, i32 } %.pn
}